target datalayout = "e-m:e-p270:32:32-p271:32:32-p272:64:64-i64:64-i128:128-f80:128-n8:16:32:64-S128"
target triple = "x86_64-pc-linux-gnu"

%struct._GLFWjoystick = type { i32, i32, ptr, i32, ptr, i32, ptr, i32, [128 x i8], ptr, [33 x i8], ptr, %struct._GLFWjoystickLinux }
%struct._GLFWjoystickLinux = type { i32, [4096 x i8], [512 x i32], [64 x i32], [64 x %struct.input_absinfo], [4 x [2 x i32]] }
%struct.input_absinfo = type { i32, i32, i32, i32, i32, i32 }

; Function Attrs: nounwind uwtable
define hidden void @_glfwInputJoystickHat(ptr noundef %0, i32 noundef %1, i8 noundef signext %2) #0 {
  %4 = alloca ptr, align 8
  %5 = alloca i32, align 4
  %6 = alloca i8, align 1
  %7 = alloca i32, align 4
  store ptr %0, ptr %4, align 8, !tbaa !68
  store i32 %1, ptr %5, align 4, !tbaa !8
  store i8 %2, ptr %6, align 1, !tbaa !10
  call void @llvm.lifetime.start.p0(i64 4, ptr %7) #8
  %8 = load ptr, ptr %4, align 8, !tbaa !68
  %9 = getelementptr inbounds nuw %struct._GLFWjoystick, ptr %8, i32 0, i32 5
  %10 = load i32, ptr %9, align 8, !tbaa !154
  %11 = load i32, ptr %5, align 4, !tbaa !8
  %12 = mul nsw i32 %11, 4
  %13 = add nsw i32 %10, %12
  store i32 %13, ptr %7, align 4, !tbaa !8
  %14 = load i8, ptr %6, align 1, !tbaa !10
  %15 = sext i8 %14 to i32
  %16 = and i32 %15, 1
  %17 = icmp ne i32 %16, 0
  %18 = select i1 %17, i32 1, i32 0
  %19 = trunc i32 %18 to i8
  %20 = load ptr, ptr %4, align 8, !tbaa !68
  %21 = getelementptr inbounds nuw %struct._GLFWjoystick, ptr %20, i32 0, i32 4
  %22 = load ptr, ptr %21, align 8, !tbaa !153
  %23 = load i32, ptr %7, align 4, !tbaa !8
  %24 = add nsw i32 %23, 0
  %25 = sext i32 %24 to i64
  %26 = getelementptr inbounds i8, ptr %22, i64 %25
  store i8 %19, ptr %26, align 1, !tbaa !10
  %27 = load i8, ptr %6, align 1, !tbaa !10
  %28 = sext i8 %27 to i32
  %29 = and i32 %28, 2
  %30 = icmp ne i32 %29, 0
  %31 = select i1 %30, i32 1, i32 0
  %32 = trunc i32 %31 to i8
  %33 = load ptr, ptr %4, align 8, !tbaa !68
  %34 = getelementptr inbounds nuw %struct._GLFWjoystick, ptr %33, i32 0, i32 4
  %35 = load ptr, ptr %34, align 8, !tbaa !153
  %36 = load i32, ptr %7, align 4, !tbaa !8
  %37 = add nsw i32 %36, 1
  %38 = sext i32 %37 to i64
  %39 = getelementptr inbounds i8, ptr %35, i64 %38
  store i8 %32, ptr %39, align 1, !tbaa !10
  %40 = load i8, ptr %6, align 1, !tbaa !10
  %41 = sext i8 %40 to i32
  %42 = and i32 %41, 4
  %43 = icmp ne i32 %42, 0
  %44 = select i1 %43, i32 1, i32 0
  %45 = trunc i32 %44 to i8
  %46 = load ptr, ptr %4, align 8, !tbaa !68
  %47 = getelementptr inbounds nuw %struct._GLFWjoystick, ptr %46, i32 0, i32 4
  %48 = load ptr, ptr %47, align 8, !tbaa !153
  %49 = load i32, ptr %7, align 4, !tbaa !8
  %50 = add nsw i32 %49, 2
  %51 = sext i32 %50 to i64
  %52 = getelementptr inbounds i8, ptr %48, i64 %51
  store i8 %45, ptr %52, align 1, !tbaa !10
  %53 = load i8, ptr %6, align 1, !tbaa !10
  %54 = sext i8 %53 to i32
  %55 = and i32 %54, 8
  %56 = icmp ne i32 %55, 0
  %57 = select i1 %56, i32 1, i32 0
  %58 = trunc i32 %57 to i8
  %59 = load ptr, ptr %4, align 8, !tbaa !68
  %60 = getelementptr inbounds nuw %struct._GLFWjoystick, ptr %59, i32 0, i32 4
  %61 = load ptr, ptr %60, align 8, !tbaa !153
  %62 = load i32, ptr %7, align 4, !tbaa !8
  %63 = add nsw i32 %62, 3
  %64 = sext i32 %63 to i64
  %65 = getelementptr inbounds i8, ptr %61, i64 %64
  store i8 %58, ptr %65, align 1, !tbaa !10
  %66 = load i8, ptr %6, align 1, !tbaa !10
  %67 = load ptr, ptr %4, align 8, !tbaa !68
  %68 = getelementptr inbounds nuw %struct._GLFWjoystick, ptr %67, i32 0, i32 6
  %69 = load ptr, ptr %68, align 8, !tbaa !155
  %70 = load i32, ptr %5, align 4, !tbaa !8
  %71 = sext i32 %70 to i64
  %72 = getelementptr inbounds i8, ptr %69, i64 %71
  store i8 %66, ptr %72, align 1, !tbaa !10
  call void @llvm.lifetime.end.p0(i64 4, ptr %7) #8
  ret void
}