; Function Attrs: mustprogress nofree norecurse nosync nounwind willreturn memory(write, argmem: readwrite, inaccessiblemem: none) uwtable
define hidden void @_glfwInputJoystickHat(ptr noundef readonly captures(none) %0, i32 noundef %1, i8 noundef signext %2) local_unnamed_addr #2 {
  %4 = getelementptr inbounds nuw i8, ptr %0, i64 32
  %5 = load i32, ptr %4, align 8, !tbaa !147
  %6 = shl nsw i32 %1, 2
  %7 = add nsw i32 %5, %6
  %8 = and i8 %2, 1
  %9 = getelementptr inbounds nuw i8, ptr %0, i64 24
  %10 = load ptr, ptr %9, align 8, !tbaa !146
  %11 = sext i32 %7 to i64
  %12 = getelementptr inbounds i8, ptr %10, i64 %11
  store i8 %8, ptr %12, align 1, !tbaa !3
  %13 = lshr i8 %2, 1
  %.lobit = and i8 %13, 1
  %14 = load ptr, ptr %9, align 8, !tbaa !146
  %15 = getelementptr i8, ptr %14, i64 %11
  %16 = getelementptr i8, ptr %15, i64 1
  store i8 %.lobit, ptr %16, align 1, !tbaa !3
  %17 = lshr i8 %2, 2
  %.lobit16 = and i8 %17, 1
  %18 = load ptr, ptr %9, align 8, !tbaa !146
  %19 = getelementptr i8, ptr %18, i64 %11
  %20 = getelementptr i8, ptr %19, i64 2
  store i8 %.lobit16, ptr %20, align 1, !tbaa !3
  %21 = lshr i8 %2, 3
  %.lobit17 = and i8 %21, 1
  %22 = load ptr, ptr %9, align 8, !tbaa !146
  %23 = getelementptr i8, ptr %22, i64 %11
  %24 = getelementptr i8, ptr %23, i64 3
  store i8 %.lobit17, ptr %24, align 1, !tbaa !3
  %25 = getelementptr inbounds nuw i8, ptr %0, i64 40
  %26 = load ptr, ptr %25, align 8, !tbaa !148
  %27 = sext i32 %1 to i64
  %28 = getelementptr inbounds i8, ptr %26, i64 %27
  store i8 %2, ptr %28, align 1, !tbaa !3
  ret void
}